Certificate:
    Data:
        Version: 3 (0x2)
        Serial Number: 1 (0x1)
        Signature Algorithm: sha512WithRSAEncryption
        Issuer: CN=ExampleCA2
        Validity
            Not Before: Nov  4 15:15:51 2024 GMT
            Not After : Nov  4 15:15:51 2025 GMT
        Subject: C=IT, ST=Lazio, L=Rome, O=CyberITS, CN=localhost
        Subject Public Key Info:
            Public Key Algorithm: rsaEncryption
                Public-Key: (2048 bit)
                Modulus:
                    00:9e:67:b0:fc:da:b0:6c:a4:44:e6:14:38:43:9c:
                    4e:8f:da:32:99:e1:c1:65:95:2d:c1:c4:14:41:41:
                    a2:e8:3a:d0:30:d0:d5:ef:12:95:5a:00:6f:fd:7a:
                    a1:1d:29:e0:5e:05:1e:14:71:5b:2d:f7:04:46:50:
                    73:0e:20:2c:ee:7f:a8:ee:5c:19:35:9e:1f:0b:97:
                    df:c5:f0:20:d9:f7:60:7e:f5:8c:5f:b2:85:8b:63:
                    d9:22:d9:c8:d3:4d:b3:d5:d2:68:30:f2:18:bd:a6:
                    d1:c8:c3:bd:db:47:b4:53:8a:a6:81:c3:56:86:3e:
                    3c:67:2c:82:8a:db:e0:04:23:12:2f:a1:b7:dc:e5:
                    78:99:1d:88:0a:d9:35:c2:d5:3e:1c:68:49:03:0a:
                    be:21:d5:84:63:aa:91:04:65:24:fe:8a:df:5d:42:
                    4c:6e:95:fa:92:4c:f1:d5:c5:96:6a:93:23:81:11:
                    12:3f:7c:58:20:b3:d3:b5:cd:27:16:2e:15:1a:64:
                    f2:d8:c7:be:85:44:11:65:81:5d:2d:c3:66:fe:5d:
                    96:e1:a3:0e:a5:e2:c4:65:04:8e:1e:56:30:54:c9:
                    e2:59:b8:97:0a:07:2c:8f:78:53:89:db:14:70:d0:
                    93:0d:ae:9d:3f:3a:10:19:0e:bf:20:3c:5c:17:77:
                    de:95
                Exponent: 65537 (0x10001)
        X509v3 extensions:
            X509v3 Subject Key Identifier: 
                5D:AC:A1:FE:4D:83:3C:63:9D:7B:85:58:98:04:95:63:B1:A4:6A:C1
            X509v3 Basic Constraints: critical
                CA:FALSE
            Netscape Cert Type: 
                SSL Server
            X509v3 Key Usage: 
                Digital Signature, Non Repudiation, Key Encipherment
            X509v3 Extended Key Usage: 
                TLS Web Server Authentication
            X509v3 Subject Alternative Name: 
                DNS:localhost, IP Address:127.0.0.1, IP Address:0:0:0:0:0:0:0:1
            X509v3 Authority Key Identifier: 
                30:20:B1:C2:58:75:5C:68:5C:BE:A0:41:82:66:93:03:20:72:58:C7
    Signature Algorithm: sha512WithRSAEncryption
    Signature Value:
        b3:24:3c:2c:b4:f0:1d:94:46:c5:4a:7e:79:94:1e:75:2a:82:
        1b:89:91:20:aa:ff:c1:ed:0a:e2:97:47:12:a2:8e:21:09:90:
        2a:0f:e0:00:7c:fe:93:5e:f3:56:be:8a:c7:4d:21:07:9f:d2:
        37:df:f5:c4:94:ae:58:15:b7:ba:a7:a8:e8:03:80:88:5c:36:
        bb:67:61:23:5a:98:32:a1:d7:4f:47:17:8c:2b:05:38:a9:42:
        8e:eb:9c:02:bf:94:d6:8c:cb:2e:de:d7:1c:91:83:e8:51:1c:
        c3:4c:2c:68:0b:d5:2a:8f:4c:a5:9c:2f:d7:d7:7d:df:2c:7a:
        b9:fc:10:8c:81:58:ca:f9:97:69:fe:cd:66:9a:c5:4b:67:f7:
        99:68:03:db:04:b7:ad:f3:84:ef:a0:73:af:30:c3:f5:c5:47:
        25:a9:8d:4f:15:fe:df:e1:48:3f:5e:21:6c:75:35:d3:9f:78:
        d3:b9:ec:87:57:5e:cd:74:b5:9d:fe:fb:7e:00:10:67:a9:5f:
        f7:21:a2:79:2e:4f:60:28:ee:f3:d0:9f:85:de:7a:48:4c:09:
        f9:91:ed:f6:73:36:fe:3a:ba:bf:3f:a6:65:1e:d3:e8:66:17:
        5c:16:6a:91:9c:93:cb:d5:a3:88:3a:0e:e7:2f:d5:cc:fe:83:
        6c:5d:36:d4
-----BEGIN CERTIFICATE-----
MIIDmDCCAoCgAwIBAgIBATANBgkqhkiG9w0BAQ0FADAVMRMwEQYDVQQDDApFeGFt
cGxlQ0EyMB4XDTI0MTEwNDE1MTU1MVoXDTI1MTEwNDE1MTU1MVowUzELMAkGA1UE
BhMCSVQxDjAMBgNVBAgMBUxhemlvMQ0wCwYDVQQHDARSb21lMREwDwYDVQQKDAhD
eWJlcklUUzESMBAGA1UEAwwJbG9jYWxob3N0MIIBIjANBgkqhkiG9w0BAQEFAAOC
AQ8AMIIBCgKCAQEAnmew/NqwbKRE5hQ4Q5xOj9oymeHBZZUtwcQUQUGi6DrQMNDV
7xKVWgBv/XqhHSngXgUeFHFbLfcERlBzDiAs7n+o7lwZNZ4fC5ffxfAg2fdgfvWM
X7KFi2PZItnI002z1dJoMPIYvabRyMO920e0U4qmgcNWhj48ZyyCitvgBCMSL6G3
3OV4mR2ICtk1wtU+HGhJAwq+IdWEY6qRBGUk/orfXUJMbpX6kkzx1cWWapMjgRES
P3xYILPTtc0nFi4VGmTy2Me+hUQRZYFdLcNm/l2W4aMOpeLEZQSOHlYwVMniWbiX
Cgcsj3hTidsUcNCTDa6dPzoQGQ6/IDxcF3felQIDAQABo4G0MIGxMB0GA1UdDgQW
BBRdrKH+TYM8Y517hViYBJVjsaRqwTAMBgNVHRMBAf8EAjAAMBEGCWCGSAGG+EIB
AQQEAwIGQDALBgNVHQ8EBAMCBeAwEwYDVR0lBAwwCgYIKwYBBQUHAwEwLAYDVR0R
BCUwI4IJbG9jYWxob3N0hwR/AAABhxAAAAAAAAAAAAAAAAAAAAABMB8GA1UdIwQY
MBaAFDAgscJYdVxoXL6gQYJmkwMgcljHMA0GCSqGSIb3DQEBDQUAA4IBAQCzJDws
tPAdlEbFSn55lB51KoIbiZEgqv/B7Qril0cSoo4hCZAqD+AAfP6TXvNWvorHTSEH
n9I33/XElK5YFbe6p6joA4CIXDa7Z2EjWpgyoddPRxeMKwU4qUKO65wCv5TWjMsu
3tcckYPoURzDTCxoC9Uqj0ylnC/X133fLHq5/BCMgVjK+Zdp/s1mmsVLZ/eZaAPb
BLet84TvoHOvMMP1xUclqY1PFf7f4Ug/XiFsdTXTn3jTueyHV17NdLWd/vt+ABBn
qV/3IaJ5Lk9gKO7z0J+F3npITAn5ke32czb+Orq/P6ZlHtPoZhdcFmqRnJPL1aOI
Og7nL9XM/oNsXTbU
-----END CERTIFICATE-----
